; Function Attrs: mustprogress uwtable
define hidden void @_ZN7nanogui9ImageView5resetEv(ptr noundef nonnull align 8 dereferenceable(272) %0) local_unnamed_addr #0 align 2 {
  %2 = getelementptr inbounds i8, ptr %0, i64 192
  store float 0.000000e+00, ptr %2, align 8
  %3 = getelementptr inbounds i8, ptr %0, i64 184
  %4 = load ptr, ptr %3, align 8
  %.not.i = icmp eq ptr %4, null
  br i1 %.not.i, label %_ZN7nanogui9ImageView6centerEv.exit, label %_ZN7nanogui5ArrayIfLm2EEC2Ef.exit.critedge.i

_ZN7nanogui5ArrayIfLm2EEC2Ef.exit.critedge.i:     ; preds = %1
  %5 = getelementptr inbounds i8, ptr %0, i64 48
  %6 = getelementptr inbounds i8, ptr %0, i64 196
  %7 = load <2 x i32>, ptr %5, align 8
  %8 = sitofp <2 x i32> %7 to <2 x float>
  %9 = tail call noundef ptr @_ZN7nanogui6Widget6screenEv(ptr noundef nonnull align 8 dereferenceable(140) %0)
  %10 = getelementptr inbounds i8, ptr %9, i64 248
  %11 = load float, ptr %10, align 8
  %12 = insertelement <2 x float> poison, float %11, i64 0
  %13 = shufflevector <2 x float> %12, <2 x float> poison, <2 x i32> zeroinitializer
  %14 = fmul <2 x float> %13, %8
  %15 = load ptr, ptr %3, align 8
  %16 = getelementptr inbounds i8, ptr %15, i64 20
  %17 = load <2 x i32>, ptr %16, align 4
  %18 = sitofp <2 x i32> %17 to <2 x float>
  %19 = load float, ptr %2, align 8
  %20 = fdiv float %19, 5.000000e+00
  %exp2f.i.i = tail call noundef float @exp2f(float %20)
  %21 = insertelement <2 x float> poison, float %exp2f.i.i, i64 0
  %22 = shufflevector <2 x float> %21, <2 x float> poison, <2 x i32> zeroinitializer
  %23 = fmul <2 x float> %22, %18
  %24 = fsub <2 x float> %14, %23
  %25 = fmul <2 x float> %24, <float 5.000000e-01, float 5.000000e-01>
  %26 = fptosi <2 x float> %25 to <2 x i32>
  %27 = sitofp <2 x i32> %26 to <2 x float>
  store <2 x float> %27, ptr %6, align 4
  br label %_ZN7nanogui9ImageView6centerEv.exit

_ZN7nanogui9ImageView6centerEv.exit:              ; preds = %1, %_ZN7nanogui5ArrayIfLm2EEC2Ef.exit.critedge.i
  ret void
}